target datalayout = "e-m:e-p270:32:32-p271:32:32-p272:64:64-i64:64-i128:128-f80:128-n8:16:32:64-S128"
target triple = "x86_64-pc-linux-gnu"

; Function Attrs: nounwind uwtable
define internal void @gradient_predict(ptr noundef %0, ptr noundef %1, ptr noundef %2, i64 noundef %3, i32 noundef %4, i32 noundef %5) #1 {
  %7 = alloca ptr, align 8
  %8 = alloca ptr, align 8
  %9 = alloca ptr, align 8
  %10 = alloca i64, align 8
  %11 = alloca i32, align 4
  %12 = alloca i32, align 4
  %13 = alloca i32, align 4
  %14 = alloca i32, align 4
  %15 = alloca i32, align 4
  %16 = alloca i32, align 4
  %17 = alloca i32, align 4
  store ptr %0, ptr %7, align 8, !tbaa !29
  store ptr %1, ptr %8, align 8, !tbaa !48
  store ptr %2, ptr %9, align 8, !tbaa !48
  store i64 %3, ptr %10, align 8, !tbaa !46
  store i32 %4, ptr %11, align 4, !tbaa !38
  store i32 %5, ptr %12, align 4, !tbaa !38
  call void @llvm.lifetime.start.p0(i64 4, ptr %13) #11
  store i32 0, ptr %13, align 4, !tbaa !38
  call void @llvm.lifetime.start.p0(i64 4, ptr %14) #11
  call void @llvm.lifetime.start.p0(i64 4, ptr %15) #11
  call void @llvm.lifetime.start.p0(i64 4, ptr %16) #11
  call void @llvm.lifetime.start.p0(i64 4, ptr %17) #11
  store i32 0, ptr %16, align 4, !tbaa !38
  br label %18

18:                                               ; preds = %42, %6
  %19 = load i32, ptr %16, align 4, !tbaa !38
  %20 = load i32, ptr %11, align 4, !tbaa !38
  %21 = icmp slt i32 %19, %20
  br i1 %21, label %22, label %45

22:                                               ; preds = %18
  %23 = load ptr, ptr %8, align 8, !tbaa !48
  %24 = load i32, ptr %16, align 4, !tbaa !38
  %25 = sext i32 %24 to i64
  %26 = getelementptr inbounds i8, ptr %23, i64 %25
  %27 = load i8, ptr %26, align 1, !tbaa !86
  %28 = zext i8 %27 to i32
  %29 = load i32, ptr %13, align 4, !tbaa !38
  %30 = sub nsw i32 %28, %29
  %31 = trunc i32 %30 to i8
  %32 = load ptr, ptr %9, align 8, !tbaa !48
  %33 = load i32, ptr %16, align 4, !tbaa !38
  %34 = sext i32 %33 to i64
  %35 = getelementptr inbounds i8, ptr %32, i64 %34
  store i8 %31, ptr %35, align 1, !tbaa !86
  %36 = load ptr, ptr %8, align 8, !tbaa !48
  %37 = load i32, ptr %16, align 4, !tbaa !38
  %38 = sext i32 %37 to i64
  %39 = getelementptr inbounds i8, ptr %36, i64 %38
  %40 = load i8, ptr %39, align 1, !tbaa !86
  %41 = zext i8 %40 to i32
  store i32 %41, ptr %13, align 4, !tbaa !38
  br label %42

42:                                               ; preds = %22
  %43 = load i32, ptr %16, align 4, !tbaa !38
  %44 = add nsw i32 %43, 1
  store i32 %44, ptr %16, align 4, !tbaa !38
  br label %18, !llvm.loop !90

45:                                               ; preds = %18
  %46 = load i32, ptr %11, align 4, !tbaa !38
  %47 = load ptr, ptr %9, align 8, !tbaa !48
  %48 = sext i32 %46 to i64
  %49 = getelementptr inbounds i8, ptr %47, i64 %48
  store ptr %49, ptr %9, align 8, !tbaa !48
  %50 = load i64, ptr %10, align 8, !tbaa !46
  %51 = load ptr, ptr %8, align 8, !tbaa !48
  %52 = getelementptr inbounds i8, ptr %51, i64 %50
  store ptr %52, ptr %8, align 8, !tbaa !48
  store i32 1, ptr %17, align 4, !tbaa !38
  br label %53

53:                                               ; preds = %131, %45
  %54 = load i32, ptr %17, align 4, !tbaa !38
  %55 = load i32, ptr %12, align 4, !tbaa !38
  %56 = icmp slt i32 %54, %55
  br i1 %56, label %57, label %134

57:                                               ; preds = %53
  %58 = load ptr, ptr %8, align 8, !tbaa !48
  %59 = load i64, ptr %10, align 8, !tbaa !46
  %60 = sub nsw i64 0, %59
  %61 = getelementptr inbounds i8, ptr %58, i64 %60
  %62 = load i8, ptr %61, align 1, !tbaa !86
  %63 = zext i8 %62 to i32
  store i32 %63, ptr %14, align 4, !tbaa !38
  %64 = load ptr, ptr %8, align 8, !tbaa !48
  %65 = getelementptr inbounds i8, ptr %64, i64 0
  %66 = load i8, ptr %65, align 1, !tbaa !86
  %67 = zext i8 %66 to i32
  %68 = load i32, ptr %14, align 4, !tbaa !38
  %69 = sub nsw i32 %67, %68
  store i32 %69, ptr %13, align 4, !tbaa !38
  %70 = load i32, ptr %13, align 4, !tbaa !38
  %71 = trunc i32 %70 to i8
  %72 = load ptr, ptr %9, align 8, !tbaa !48
  %73 = getelementptr inbounds i8, ptr %72, i64 0
  store i8 %71, ptr %73, align 1, !tbaa !86
  store i32 1, ptr %16, align 4, !tbaa !38
  br label %74

74:                                               ; preds = %120, %57
  %75 = load i32, ptr %16, align 4, !tbaa !38
  %76 = load i32, ptr %11, align 4, !tbaa !38
  %77 = icmp slt i32 %75, %76
  br i1 %77, label %78, label %123

78:                                               ; preds = %74
  %79 = load ptr, ptr %8, align 8, !tbaa !48
  %80 = load i32, ptr %16, align 4, !tbaa !38
  %81 = sext i32 %80 to i64
  %82 = load i64, ptr %10, align 8, !tbaa !46
  %83 = sub nsw i64 %81, %82
  %84 = getelementptr inbounds i8, ptr %79, i64 %83
  %85 = load i8, ptr %84, align 1, !tbaa !86
  %86 = zext i8 %85 to i32
  store i32 %86, ptr %14, align 4, !tbaa !38
  %87 = load ptr, ptr %8, align 8, !tbaa !48
  %88 = load i32, ptr %16, align 4, !tbaa !38
  %89 = sext i32 %88 to i64
  %90 = load i64, ptr %10, align 8, !tbaa !46
  %91 = add nsw i64 %90, 1
  %92 = sub nsw i64 %89, %91
  %93 = getelementptr inbounds i8, ptr %87, i64 %92
  %94 = load i8, ptr %93, align 1, !tbaa !86
  %95 = zext i8 %94 to i32
  store i32 %95, ptr %15, align 4, !tbaa !38
  %96 = load ptr, ptr %8, align 8, !tbaa !48
  %97 = load i32, ptr %16, align 4, !tbaa !38
  %98 = sub nsw i32 %97, 1
  %99 = sext i32 %98 to i64
  %100 = getelementptr inbounds i8, ptr %96, i64 %99
  %101 = load i8, ptr %100, align 1, !tbaa !86
  %102 = zext i8 %101 to i32
  store i32 %102, ptr %13, align 4, !tbaa !38
  %103 = load ptr, ptr %8, align 8, !tbaa !48
  %104 = load i32, ptr %16, align 4, !tbaa !38
  %105 = sext i32 %104 to i64
  %106 = getelementptr inbounds i8, ptr %103, i64 %105
  %107 = load i8, ptr %106, align 1, !tbaa !86
  %108 = zext i8 %107 to i32
  %109 = load i32, ptr %14, align 4, !tbaa !38
  %110 = sub nsw i32 %108, %109
  %111 = load i32, ptr %13, align 4, !tbaa !38
  %112 = sub nsw i32 %110, %111
  %113 = load i32, ptr %15, align 4, !tbaa !38
  %114 = add nsw i32 %112, %113
  %115 = trunc i32 %114 to i8
  %116 = load ptr, ptr %9, align 8, !tbaa !48
  %117 = load i32, ptr %16, align 4, !tbaa !38
  %118 = sext i32 %117 to i64
  %119 = getelementptr inbounds i8, ptr %116, i64 %118
  store i8 %115, ptr %119, align 1, !tbaa !86
  br label %120

120:                                              ; preds = %78
  %121 = load i32, ptr %16, align 4, !tbaa !38
  %122 = add nsw i32 %121, 1
  store i32 %122, ptr %16, align 4, !tbaa !38
  br label %74, !llvm.loop !91

123:                                              ; preds = %74
  %124 = load i32, ptr %11, align 4, !tbaa !38
  %125 = load ptr, ptr %9, align 8, !tbaa !48
  %126 = sext i32 %124 to i64
  %127 = getelementptr inbounds i8, ptr %125, i64 %126
  store ptr %127, ptr %9, align 8, !tbaa !48
  %128 = load i64, ptr %10, align 8, !tbaa !46
  %129 = load ptr, ptr %8, align 8, !tbaa !48
  %130 = getelementptr inbounds i8, ptr %129, i64 %128
  store ptr %130, ptr %8, align 8, !tbaa !48
  br label %131

131:                                              ; preds = %123
  %132 = load i32, ptr %17, align 4, !tbaa !38
  %133 = add nsw i32 %132, 1
  store i32 %133, ptr %17, align 4, !tbaa !38
  br label %53, !llvm.loop !92

134:                                              ; preds = %53
  call void @llvm.lifetime.end.p0(i64 4, ptr %17) #11
  call void @llvm.lifetime.end.p0(i64 4, ptr %16) #11
  call void @llvm.lifetime.end.p0(i64 4, ptr %15) #11
  call void @llvm.lifetime.end.p0(i64 4, ptr %14) #11
  call void @llvm.lifetime.end.p0(i64 4, ptr %13) #11
  ret void
}