; Function Attrs: nofree norecurse nosync nounwind memory(argmem: readwrite) uwtable
define internal void @gradient_predict(ptr readnone captures(none) %0, ptr noundef readonly captures(none) %1, ptr noundef writeonly captures(none) %2, i64 noundef %3, i32 noundef %4, i32 noundef %5) #4 {
  %7 = icmp sgt i32 %4, 0
  br i1 %7, label %.lr.ph.preheader, label %._crit_edge

.lr.ph.preheader:                                 ; preds = %6
  %wide.trip.count = zext nneg i32 %4 to i64
  br label %.lr.ph

.lr.ph:                                           ; preds = %.lr.ph.preheader, %.lr.ph
  %indvars.iv = phi i64 [ 0, %.lr.ph.preheader ], [ %indvars.iv.next, %.lr.ph ]
  %.04652 = phi i8 [ 0, %.lr.ph.preheader ], [ %12, %.lr.ph ]
  %8 = getelementptr inbounds nuw i8, ptr %1, i64 %indvars.iv
  %9 = load i8, ptr %8, align 1, !tbaa !55
  %10 = sub i8 %9, %.04652
  %11 = getelementptr inbounds nuw i8, ptr %2, i64 %indvars.iv
  store i8 %10, ptr %11, align 1, !tbaa !55
  %12 = load i8, ptr %8, align 1, !tbaa !55
  %indvars.iv.next = add nuw nsw i64 %indvars.iv, 1
  %exitcond.not = icmp eq i64 %indvars.iv.next, %wide.trip.count
  br i1 %exitcond.not, label %._crit_edge, label %.lr.ph, !llvm.loop !107

._crit_edge:                                      ; preds = %.lr.ph, %6
  %13 = sext i32 %4 to i64
  %14 = icmp sgt i32 %5, 1
  br i1 %14, label %.lr.ph65, label %._crit_edge66

.lr.ph65:                                         ; preds = %._crit_edge
  %.04759 = getelementptr inbounds i8, ptr %2, i64 %13
  %.04558 = getelementptr inbounds i8, ptr %1, i64 %3
  %15 = icmp sgt i32 %4, 1
  br i1 %15, label %.lr.ph56.us.preheader, label %.lr.ph65.split

.lr.ph56.us.preheader:                            ; preds = %.lr.ph65
  %wide.trip.count72 = zext nneg i32 %4 to i64
  br label %.lr.ph56.us

.lr.ph56.us:                                      ; preds = %.lr.ph56.us.preheader, %._crit_edge57.us
  %.04763.us = phi ptr [ %.047.us, %._crit_edge57.us ], [ %.04759, %.lr.ph56.us.preheader ]
  %.04562.us = phi ptr [ %.045.us, %._crit_edge57.us ], [ %.04558, %.lr.ph56.us.preheader ]
  %.061.us = phi i32 [ %33, %._crit_edge57.us ], [ 1, %.lr.ph56.us.preheader ]
  %.pn4960.us = phi ptr [ %.04562.us, %._crit_edge57.us ], [ %1, %.lr.ph56.us.preheader ]
  %16 = load i8, ptr %.pn4960.us, align 1, !tbaa !55
  %17 = load i8, ptr %.04562.us, align 1, !tbaa !55
  %18 = sub i8 %17, %16
  store i8 %18, ptr %.04763.us, align 1, !tbaa !55
  %19 = getelementptr i8, ptr %.pn4960.us, i64 -1
  br label %20

20:                                               ; preds = %.lr.ph56.us, %20
  %indvars.iv69 = phi i64 [ 1, %.lr.ph56.us ], [ %indvars.iv.next70, %20 ]
  %21 = getelementptr inbounds nuw i8, ptr %.pn4960.us, i64 %indvars.iv69
  %22 = load i8, ptr %21, align 1, !tbaa !55
  %23 = getelementptr i8, ptr %19, i64 %indvars.iv69
  %24 = load i8, ptr %23, align 1, !tbaa !55
  %25 = getelementptr i8, ptr %.04562.us, i64 %indvars.iv69
  %26 = getelementptr i8, ptr %25, i64 -1
  %27 = load i8, ptr %26, align 1, !tbaa !55
  %28 = load i8, ptr %25, align 1, !tbaa !55
  %29 = add i8 %22, %27
  %30 = sub i8 %24, %29
  %31 = add i8 %30, %28
  %32 = getelementptr inbounds nuw i8, ptr %.04763.us, i64 %indvars.iv69
  store i8 %31, ptr %32, align 1, !tbaa !55
  %indvars.iv.next70 = add nuw nsw i64 %indvars.iv69, 1
  %exitcond73.not = icmp eq i64 %indvars.iv.next70, %wide.trip.count72
  br i1 %exitcond73.not, label %._crit_edge57.us, label %20, !llvm.loop !108

._crit_edge57.us:                                 ; preds = %20
  %33 = add nuw nsw i32 %.061.us, 1
  %.045.us = getelementptr inbounds i8, ptr %.04562.us, i64 %3
  %.047.us = getelementptr inbounds nuw i8, ptr %.04763.us, i64 %13
  %exitcond74.not = icmp eq i32 %33, %5
  br i1 %exitcond74.not, label %._crit_edge66, label %.lr.ph56.us, !llvm.loop !109

.lr.ph65.split:                                   ; preds = %.lr.ph65, %.lr.ph65.split
  %.04763 = phi ptr [ %.047, %.lr.ph65.split ], [ %.04759, %.lr.ph65 ]
  %.04562 = phi ptr [ %.045, %.lr.ph65.split ], [ %.04558, %.lr.ph65 ]
  %.061 = phi i32 [ %37, %.lr.ph65.split ], [ 1, %.lr.ph65 ]
  %.pn4960 = phi ptr [ %.04562, %.lr.ph65.split ], [ %1, %.lr.ph65 ]
  %34 = load i8, ptr %.pn4960, align 1, !tbaa !55
  %35 = load i8, ptr %.04562, align 1, !tbaa !55
  %36 = sub i8 %35, %34
  store i8 %36, ptr %.04763, align 1, !tbaa !55
  %37 = add nuw nsw i32 %.061, 1
  %.045 = getelementptr inbounds i8, ptr %.04562, i64 %3
  %.047 = getelementptr inbounds i8, ptr %.04763, i64 %13
  %exitcond68.not = icmp eq i32 %37, %5
  br i1 %exitcond68.not, label %._crit_edge66, label %.lr.ph65.split, !llvm.loop !109

._crit_edge66:                                    ; preds = %.lr.ph65.split, %._crit_edge57.us, %._crit_edge
  ret void
}